target datalayout = "e-m:e-p270:32:32-p271:32:32-p272:64:64-i64:64-i128:128-f80:128-n8:16:32:64-S128"
target triple = "x86_64-pc-linux-gnu"

%struct.OSSL_HPKE_KEM_INFO = type { i16, ptr, ptr, ptr, i64, i64, i64, i64, i8 }
%struct.PROV_EC_CTX = type { ptr, ptr, ptr, ptr, i32, i32, ptr, i64, ptr, ptr }

@.str.1 = private unnamed_addr constant [50 x i8] c"../openssl/providers/implementations/kem/ec_kem.c\00", align 1
@.str.5 = private unnamed_addr constant [21 x i8] c"*secretlen too small\00", align 1
@__func__.eckem_decapsulate = private unnamed_addr constant [18 x i8] c"eckem_decapsulate\00", align 1
@__func__.dhkem_decap = private unnamed_addr constant [12 x i8] c"dhkem_decap\00", align 1
@.str.12 = private unnamed_addr constant [23 x i8] c"Invalid enc public key\00", align 1
@.str.13 = private unnamed_addr constant [29 x i8] c"Invalid recipient public key\00", align 1

; Function Attrs: nounwind uwtable
define internal i32 @ecpubkey_todata(ptr noundef %0, ptr noundef %1, ptr noundef %2, i64 noundef %3) #0 {
  %5 = alloca ptr, align 8
  %6 = alloca ptr, align 8
  %7 = alloca ptr, align 8
  %8 = alloca i64, align 8
  %9 = alloca ptr, align 8
  %10 = alloca ptr, align 8
  store ptr %0, ptr %5, align 8, !tbaa !3
  store ptr %1, ptr %6, align 8, !tbaa !10
  store ptr %2, ptr %7, align 8, !tbaa !36
  store i64 %3, ptr %8, align 8, !tbaa !12
  call void @llvm.lifetime.start.p0(i64 8, ptr %9) #5
  call void @llvm.lifetime.start.p0(i64 8, ptr %10) #5
  %11 = load ptr, ptr %5, align 8, !tbaa !3
  %12 = call ptr @EC_KEY_get0_group(ptr noundef %11)
  store ptr %12, ptr %10, align 8, !tbaa !29
  %13 = load ptr, ptr %5, align 8, !tbaa !3
  %14 = call ptr @EC_KEY_get0_public_key(ptr noundef %13)
  store ptr %14, ptr %9, align 8, !tbaa !48
  %15 = load ptr, ptr %10, align 8, !tbaa !29
  %16 = load ptr, ptr %9, align 8, !tbaa !48
  %17 = load ptr, ptr %6, align 8, !tbaa !10
  %18 = load i64, ptr %8, align 8, !tbaa !12
  %19 = call i64 @EC_POINT_point2oct(ptr noundef %15, ptr noundef %16, i32 noundef 4, ptr noundef %17, i64 noundef %18, ptr noundef null)
  %20 = load ptr, ptr %7, align 8, !tbaa !36
  store i64 %19, ptr %20, align 8, !tbaa !12
  %21 = load ptr, ptr %7, align 8, !tbaa !36
  %22 = load i64, ptr %21, align 8, !tbaa !12
  %23 = icmp ne i64 %22, 0
  %24 = zext i1 %23 to i32
  call void @llvm.lifetime.end.p0(i64 8, ptr %10) #5
  call void @llvm.lifetime.end.p0(i64 8, ptr %9) #5
  ret i32 %24
}

; Function Attrs: nounwind uwtable
define internal ptr @eckey_frompub(ptr noundef %0, ptr noundef %1, i64 noundef %2) #0 {
  %4 = alloca ptr, align 8
  %5 = alloca ptr, align 8
  %6 = alloca ptr, align 8
  %7 = alloca i64, align 8
  %8 = alloca ptr, align 8
  %9 = alloca i32, align 4
  store ptr %0, ptr %5, align 8, !tbaa !3
  store ptr %1, ptr %6, align 8, !tbaa !10
  store i64 %2, ptr %7, align 8, !tbaa !12
  call void @llvm.lifetime.start.p0(i64 8, ptr %8) #5
  %10 = load ptr, ptr %5, align 8, !tbaa !3
  %11 = call ptr @ossl_ec_key_get_libctx(ptr noundef %10)
  %12 = load ptr, ptr %5, align 8, !tbaa !3
  %13 = call ptr @ossl_ec_key_get0_propq(ptr noundef %12)
  %14 = call ptr @EC_KEY_new_ex(ptr noundef %11, ptr noundef %13)
  store ptr %14, ptr %8, align 8, !tbaa !3
  %15 = load ptr, ptr %8, align 8, !tbaa !3
  %16 = icmp eq ptr %15, null
  br i1 %16, label %17, label %18

17:                                               ; preds = %3
  br label %34

18:                                               ; preds = %3
  %19 = load ptr, ptr %8, align 8, !tbaa !3
  %20 = load ptr, ptr %5, align 8, !tbaa !3
  %21 = call ptr @EC_KEY_get0_group(ptr noundef %20)
  %22 = call i32 @EC_KEY_set_group(ptr noundef %19, ptr noundef %21)
  %23 = icmp ne i32 %22, 0
  br i1 %23, label %25, label %24

24:                                               ; preds = %18
  br label %34

25:                                               ; preds = %18
  %26 = load ptr, ptr %8, align 8, !tbaa !3
  %27 = load ptr, ptr %6, align 8, !tbaa !10
  %28 = load i64, ptr %7, align 8, !tbaa !12
  %29 = call i32 @EC_KEY_oct2key(ptr noundef %26, ptr noundef %27, i64 noundef %28, ptr noundef null)
  %30 = icmp ne i32 %29, 0
  br i1 %30, label %32, label %31

31:                                               ; preds = %25
  br label %34

32:                                               ; preds = %25
  %33 = load ptr, ptr %8, align 8, !tbaa !3
  store ptr %33, ptr %4, align 8
  store i32 1, ptr %9, align 4
  br label %36

34:                                               ; preds = %31, %24, %17
  %35 = load ptr, ptr %8, align 8, !tbaa !3
  call void @EC_KEY_free(ptr noundef %35)
  store ptr null, ptr %4, align 8
  store i32 1, ptr %9, align 4
  br label %36

36:                                               ; preds = %34, %32
  call void @llvm.lifetime.end.p0(i64 8, ptr %8) #5
  %37 = load ptr, ptr %4, align 8
  ret ptr %37
}

; Function Attrs: nounwind uwtable
define internal i32 @dhkem_decap(ptr noundef %0, ptr noundef %1, ptr noundef %2, ptr noundef %3, i64 noundef %4) #0 {
  %6 = alloca i32, align 4
  %7 = alloca ptr, align 8
  %8 = alloca ptr, align 8
  %9 = alloca ptr, align 8
  %10 = alloca ptr, align 8
  %11 = alloca i64, align 8
  %12 = alloca i32, align 4
  %13 = alloca ptr, align 8
  %14 = alloca ptr, align 8
  %15 = alloca [133 x i8], align 16
  %16 = alloca i64, align 8
  %17 = alloca i64, align 8
  %18 = alloca i32, align 4
  store ptr %0, ptr %7, align 8, !tbaa !19
  store ptr %1, ptr %8, align 8, !tbaa !10
  store ptr %2, ptr %9, align 8, !tbaa !36
  store ptr %3, ptr %10, align 8, !tbaa !10
  store i64 %4, ptr %11, align 8, !tbaa !12
  call void @llvm.lifetime.start.p0(i64 4, ptr %12) #5
  store i32 0, ptr %12, align 4, !tbaa !14
  call void @llvm.lifetime.start.p0(i64 8, ptr %13) #5
  store ptr null, ptr %13, align 8, !tbaa !3
  call void @llvm.lifetime.start.p0(i64 8, ptr %14) #5
  %19 = load ptr, ptr %7, align 8, !tbaa !19
  %20 = getelementptr inbounds nuw %struct.PROV_EC_CTX, ptr %19, i32 0, i32 9
  %21 = load ptr, ptr %20, align 8, !tbaa !51
  store ptr %21, ptr %14, align 8, !tbaa !19
  call void @llvm.lifetime.start.p0(i64 133, ptr %15) #5
  call void @llvm.lifetime.start.p0(i64 8, ptr %16) #5
  call void @llvm.lifetime.start.p0(i64 8, ptr %17) #5
  %22 = load ptr, ptr %14, align 8, !tbaa !19
  %23 = getelementptr inbounds nuw %struct.OSSL_HPKE_KEM_INFO, ptr %22, i32 0, i32 6
  %24 = load i64, ptr %23, align 8, !tbaa !55
  store i64 %24, ptr %17, align 8, !tbaa !12
  %25 = load ptr, ptr %8, align 8, !tbaa !10
  %26 = icmp eq ptr %25, null
  br i1 %26, label %27, label %32

27:                                               ; preds = %5
  %28 = load ptr, ptr %14, align 8, !tbaa !19
  %29 = getelementptr inbounds nuw %struct.OSSL_HPKE_KEM_INFO, ptr %28, i32 0, i32 4
  %30 = load i64, ptr %29, align 8, !tbaa !25
  %31 = load ptr, ptr %9, align 8, !tbaa !36
  store i64 %30, ptr %31, align 8, !tbaa !12
  store i32 1, ptr %6, align 4
  store i32 1, ptr %18, align 4
  br label %94

32:                                               ; preds = %5
  %33 = load ptr, ptr %9, align 8, !tbaa !36
  %34 = load i64, ptr %33, align 8, !tbaa !12
  %35 = load ptr, ptr %14, align 8, !tbaa !19
  %36 = getelementptr inbounds nuw %struct.OSSL_HPKE_KEM_INFO, ptr %35, i32 0, i32 4
  %37 = load i64, ptr %36, align 8, !tbaa !25
  %38 = icmp ult i64 %34, %37
  br i1 %38, label %39, label %40

39:                                               ; preds = %32
  call void @ERR_new()
  call void @ERR_set_debug(ptr noundef @.str.1, i32 noundef 737, ptr noundef @__func__.dhkem_decap)
  call void (i32, i32, ptr, ...) @ERR_set_error(i32 noundef 57, i32 noundef 142, ptr noundef @.str.5)
  store i32 0, ptr %6, align 4
  store i32 1, ptr %18, align 4
  br label %94

40:                                               ; preds = %32
  %41 = load i64, ptr %11, align 8, !tbaa !12
  %42 = load i64, ptr %17, align 8, !tbaa !12
  %43 = icmp ne i64 %41, %42
  br i1 %43, label %44, label %45

44:                                               ; preds = %40
  call void @ERR_new()
  call void @ERR_set_debug(ptr noundef @.str.1, i32 noundef 741, ptr noundef @__func__.dhkem_decap)
  call void (i32, i32, ptr, ...) @ERR_set_error(i32 noundef 57, i32 noundef 158, ptr noundef @.str.12)
  store i32 0, ptr %6, align 4
  store i32 1, ptr %18, align 4
  br label %94

45:                                               ; preds = %40
  %46 = load ptr, ptr %7, align 8, !tbaa !19
  %47 = getelementptr inbounds nuw %struct.PROV_EC_CTX, ptr %46, i32 0, i32 0
  %48 = load ptr, ptr %47, align 8, !tbaa !50
  %49 = load ptr, ptr %10, align 8, !tbaa !10
  %50 = load i64, ptr %11, align 8, !tbaa !12
  %51 = call ptr @eckey_frompub(ptr noundef %48, ptr noundef %49, i64 noundef %50)
  store ptr %51, ptr %13, align 8, !tbaa !3
  %52 = load ptr, ptr %13, align 8, !tbaa !3
  %53 = icmp eq ptr %52, null
  br i1 %53, label %54, label %55

54:                                               ; preds = %45
  br label %91

55:                                               ; preds = %45
  %56 = load ptr, ptr %7, align 8, !tbaa !19
  %57 = getelementptr inbounds nuw %struct.PROV_EC_CTX, ptr %56, i32 0, i32 0
  %58 = load ptr, ptr %57, align 8, !tbaa !50
  %59 = getelementptr inbounds [133 x i8], ptr %15, i64 0, i64 0
  %60 = call i32 @ecpubkey_todata(ptr noundef %58, ptr noundef %59, ptr noundef %16, i64 noundef 133)
  %61 = icmp ne i32 %60, 0
  br i1 %61, label %63, label %62

62:                                               ; preds = %55
  br label %91

63:                                               ; preds = %55
  %64 = load i64, ptr %16, align 8, !tbaa !12
  %65 = load i64, ptr %17, align 8, !tbaa !12
  %66 = icmp ne i64 %64, %65
  br i1 %66, label %67, label %68

67:                                               ; preds = %63
  call void @ERR_new()
  call void @ERR_set_debug(ptr noundef @.str.1, i32 noundef 752, ptr noundef @__func__.dhkem_decap)
  call void (i32, i32, ptr, ...) @ERR_set_error(i32 noundef 57, i32 noundef 158, ptr noundef @.str.13)
  br label %91

68:                                               ; preds = %63
  %69 = load ptr, ptr %7, align 8, !tbaa !19
  %70 = load ptr, ptr %8, align 8, !tbaa !10
  %71 = load ptr, ptr %7, align 8, !tbaa !19
  %72 = getelementptr inbounds nuw %struct.PROV_EC_CTX, ptr %71, i32 0, i32 0
  %73 = load ptr, ptr %72, align 8, !tbaa !50
  %74 = load ptr, ptr %13, align 8, !tbaa !3
  %75 = load ptr, ptr %7, align 8, !tbaa !19
  %76 = getelementptr inbounds nuw %struct.PROV_EC_CTX, ptr %75, i32 0, i32 0
  %77 = load ptr, ptr %76, align 8, !tbaa !50
  %78 = load ptr, ptr %7, align 8, !tbaa !19
  %79 = getelementptr inbounds nuw %struct.PROV_EC_CTX, ptr %78, i32 0, i32 1
  %80 = load ptr, ptr %79, align 8, !tbaa !53
  %81 = load ptr, ptr %10, align 8, !tbaa !10
  %82 = getelementptr inbounds [133 x i8], ptr %15, i64 0, i64 0
  %83 = call i32 @derive_secret(ptr noundef %69, ptr noundef %70, ptr noundef %73, ptr noundef %74, ptr noundef %77, ptr noundef %80, ptr noundef %81, ptr noundef %82)
  %84 = icmp ne i32 %83, 0
  br i1 %84, label %86, label %85

85:                                               ; preds = %68
  br label %91

86:                                               ; preds = %68
  %87 = load ptr, ptr %14, align 8, !tbaa !19
  %88 = getelementptr inbounds nuw %struct.OSSL_HPKE_KEM_INFO, ptr %87, i32 0, i32 4
  %89 = load i64, ptr %88, align 8, !tbaa !25
  %90 = load ptr, ptr %9, align 8, !tbaa !36
  store i64 %89, ptr %90, align 8, !tbaa !12
  store i32 1, ptr %12, align 4, !tbaa !14
  br label %91

91:                                               ; preds = %86, %85, %67, %62, %54
  %92 = load ptr, ptr %13, align 8, !tbaa !3
  call void @EC_KEY_free(ptr noundef %92)
  %93 = load i32, ptr %12, align 4, !tbaa !14
  store i32 %93, ptr %6, align 4
  store i32 1, ptr %18, align 4
  br label %94

94:                                               ; preds = %91, %44, %39, %27
  call void @llvm.lifetime.end.p0(i64 8, ptr %17) #5
  call void @llvm.lifetime.end.p0(i64 8, ptr %16) #5
  call void @llvm.lifetime.end.p0(i64 133, ptr %15) #5
  call void @llvm.lifetime.end.p0(i64 8, ptr %14) #5
  call void @llvm.lifetime.end.p0(i64 8, ptr %13) #5
  call void @llvm.lifetime.end.p0(i64 4, ptr %12) #5
  %95 = load i32, ptr %6, align 4
  ret i32 %95
}

; Function Attrs: nounwind uwtable
define internal i32 @eckem_decapsulate(ptr noundef %0, ptr noundef %1, ptr noundef %2, ptr noundef %3, i64 noundef %4) #0 {
  %6 = alloca i32, align 4
  %7 = alloca ptr, align 8
  %8 = alloca ptr, align 8
  %9 = alloca ptr, align 8
  %10 = alloca ptr, align 8
  %11 = alloca i64, align 8
  %12 = alloca ptr, align 8
  %13 = alloca i32, align 4
  store ptr %0, ptr %7, align 8, !tbaa !19
  store ptr %1, ptr %8, align 8, !tbaa !10
  store ptr %2, ptr %9, align 8, !tbaa !36
  store ptr %3, ptr %10, align 8, !tbaa !10
  store i64 %4, ptr %11, align 8, !tbaa !12
  call void @llvm.lifetime.start.p0(i64 8, ptr %12) #5
  %14 = load ptr, ptr %7, align 8, !tbaa !19
  store ptr %14, ptr %12, align 8, !tbaa !19
  %15 = load ptr, ptr %12, align 8, !tbaa !19
  %16 = getelementptr inbounds nuw %struct.PROV_EC_CTX, ptr %15, i32 0, i32 4
  %17 = load i32, ptr %16, align 8, !tbaa !38
  switch i32 %17, label %25 [
    i32 1, label %18
  ]

18:                                               ; preds = %5
  %19 = load ptr, ptr %12, align 8, !tbaa !19
  %20 = load ptr, ptr %8, align 8, !tbaa !10
  %21 = load ptr, ptr %9, align 8, !tbaa !36
  %22 = load ptr, ptr %10, align 8, !tbaa !10
  %23 = load i64, ptr %11, align 8, !tbaa !12
  %24 = call i32 @dhkem_decap(ptr noundef %19, ptr noundef %20, ptr noundef %21, ptr noundef %22, i64 noundef %23)
  store i32 %24, ptr %6, align 4
  store i32 1, ptr %13, align 4
  br label %26

25:                                               ; preds = %5
  call void @ERR_new()
  call void @ERR_set_debug(ptr noundef @.str.1, i32 noundef 791, ptr noundef @__func__.eckem_decapsulate)
  call void (i32, i32, ptr, ...) @ERR_set_error(i32 noundef 57, i32 noundef 125, ptr noundef null)
  store i32 -2, ptr %6, align 4
  store i32 1, ptr %13, align 4
  br label %26

26:                                               ; preds = %25, %18
  call void @llvm.lifetime.end.p0(i64 8, ptr %12) #5
  %27 = load i32, ptr %6, align 4
  ret i32 %27
}