; Function Attrs: nounwind uwtable
define internal range(i32 -2, 2) i32 @eckem_decapsulate(ptr noundef readonly captures(none) %0, ptr noundef %1, ptr noundef captures(none) %2, ptr noundef %3, i64 noundef %4) #0 {
  %6 = alloca [133 x i8], align 16
  %7 = getelementptr inbounds nuw i8, ptr %0, i64 32
  %8 = load i32, ptr %7, align 8, !tbaa !23
  %cond = icmp eq i32 %8, 1
  br i1 %cond, label %9, label %51

9:                                                ; preds = %5
  %10 = getelementptr inbounds nuw i8, ptr %0, i64 64
  %11 = load ptr, ptr %10, align 8, !tbaa !24
  call void @llvm.lifetime.start.p0(i64 133, ptr nonnull %6) #5
  %12 = getelementptr inbounds nuw i8, ptr %11, i64 48
  %13 = load i64, ptr %12, align 8, !tbaa !31
  %14 = icmp eq ptr %1, null
  br i1 %14, label %15, label %18

15:                                               ; preds = %9
  %16 = getelementptr inbounds nuw i8, ptr %11, i64 32
  %17 = load i64, ptr %16, align 8, !tbaa !14
  store i64 %17, ptr %2, align 8, !tbaa !26
  br label %dhkem_decap.exit

18:                                               ; preds = %9
  %19 = load i64, ptr %2, align 8, !tbaa !26
  %20 = getelementptr inbounds nuw i8, ptr %11, i64 32
  %21 = load i64, ptr %20, align 8, !tbaa !14
  %22 = icmp ult i64 %19, %21
  br i1 %22, label %23, label %24

23:                                               ; preds = %18
  tail call void @ERR_new() #5
  tail call void @ERR_set_debug(ptr noundef nonnull @.str.1, i32 noundef 737, ptr noundef nonnull @__func__.dhkem_decap) #5
  tail call void (i32, i32, ptr, ...) @ERR_set_error(i32 noundef 57, i32 noundef 142, ptr noundef nonnull @.str.5) #5
  br label %dhkem_decap.exit

24:                                               ; preds = %18
  %.not.i = icmp eq i64 %4, %13
  br i1 %.not.i, label %26, label %25

25:                                               ; preds = %24
  tail call void @ERR_new() #5
  tail call void @ERR_set_debug(ptr noundef nonnull @.str.1, i32 noundef 741, ptr noundef nonnull @__func__.dhkem_decap) #5
  tail call void (i32, i32, ptr, ...) @ERR_set_error(i32 noundef 57, i32 noundef 158, ptr noundef nonnull @.str.12) #5
  br label %dhkem_decap.exit

26:                                               ; preds = %24
  %27 = load ptr, ptr %0, align 8, !tbaa !30
  %28 = tail call ptr @ossl_ec_key_get_libctx(ptr noundef %27) #5
  %29 = tail call ptr @ossl_ec_key_get0_propq(ptr noundef %27) #5
  %30 = tail call ptr @EC_KEY_new_ex(ptr noundef %28, ptr noundef %29) #5
  %31 = icmp eq ptr %30, null
  br i1 %31, label %eckey_frompub.exit.thread.i, label %32

32:                                               ; preds = %26
  %33 = tail call ptr @EC_KEY_get0_group(ptr noundef %27) #5
  %34 = tail call i32 @EC_KEY_set_group(ptr noundef nonnull %30, ptr noundef %33) #5
  %.not.i.i = icmp eq i32 %34, 0
  br i1 %.not.i.i, label %eckey_frompub.exit.thread.i, label %35

35:                                               ; preds = %32
  %36 = tail call i32 @EC_KEY_oct2key(ptr noundef nonnull %30, ptr noundef %3, i64 noundef %4, ptr noundef null) #5
  %.not11.i.i = icmp eq i32 %36, 0
  br i1 %.not11.i.i, label %eckey_frompub.exit.thread.i, label %eckey_frompub.exit.i

eckey_frompub.exit.thread.i:                      ; preds = %35, %32, %26
  tail call void @EC_KEY_free(ptr noundef %30) #5
  br label %50

eckey_frompub.exit.i:                             ; preds = %35
  %37 = load ptr, ptr %0, align 8, !tbaa !30
  %38 = tail call ptr @EC_KEY_get0_group(ptr noundef %37) #5
  %39 = tail call ptr @EC_KEY_get0_public_key(ptr noundef %37) #5
  %40 = call i64 @EC_POINT_point2oct(ptr noundef %38, ptr noundef %39, i32 noundef 4, ptr noundef nonnull %6, i64 noundef 133, ptr noundef null) #5
  %.not36.i = icmp eq i64 %40, 0
  br i1 %.not36.i, label %50, label %41

41:                                               ; preds = %eckey_frompub.exit.i
  %.not32.i = icmp eq i64 %40, %4
  br i1 %.not32.i, label %43, label %42

42:                                               ; preds = %41
  call void @ERR_new() #5
  call void @ERR_set_debug(ptr noundef nonnull @.str.1, i32 noundef 752, ptr noundef nonnull @__func__.dhkem_decap) #5
  call void (i32, i32, ptr, ...) @ERR_set_error(i32 noundef 57, i32 noundef 158, ptr noundef nonnull @.str.13) #5
  br label %50

43:                                               ; preds = %41
  %44 = load ptr, ptr %0, align 8, !tbaa !30
  %45 = getelementptr inbounds nuw i8, ptr %0, i64 8
  %46 = load ptr, ptr %45, align 8, !tbaa !32
  %47 = call fastcc i32 @derive_secret(ptr noundef nonnull readonly %0, ptr noundef nonnull %1, ptr noundef %44, ptr noundef nonnull %30, ptr noundef %44, ptr noundef %46, ptr noundef %3, ptr noundef %6)
  %.not33.i = icmp eq i32 %47, 0
  br i1 %.not33.i, label %50, label %48

48:                                               ; preds = %43
  %49 = load i64, ptr %20, align 8, !tbaa !14
  store i64 %49, ptr %2, align 8, !tbaa !26
  br label %50

50:                                               ; preds = %48, %43, %42, %eckey_frompub.exit.i, %eckey_frompub.exit.thread.i
  %.0.i35.i = phi ptr [ %30, %42 ], [ %30, %48 ], [ %30, %43 ], [ %30, %eckey_frompub.exit.i ], [ null, %eckey_frompub.exit.thread.i ]
  %.026.i = phi i32 [ 0, %42 ], [ 1, %48 ], [ 0, %43 ], [ 0, %eckey_frompub.exit.i ], [ 0, %eckey_frompub.exit.thread.i ]
  call void @EC_KEY_free(ptr noundef %.0.i35.i) #5
  br label %dhkem_decap.exit

dhkem_decap.exit:                                 ; preds = %15, %23, %25, %50
  %.0.i = phi i32 [ 1, %15 ], [ 0, %23 ], [ 0, %25 ], [ %.026.i, %50 ]
  call void @llvm.lifetime.end.p0(i64 133, ptr nonnull %6) #5
  br label %52

51:                                               ; preds = %5
  tail call void @ERR_new() #5
  tail call void @ERR_set_debug(ptr noundef nonnull @.str.1, i32 noundef 791, ptr noundef nonnull @__func__.eckem_decapsulate) #5
  tail call void (i32, i32, ptr, ...) @ERR_set_error(i32 noundef 57, i32 noundef 125, ptr noundef null) #5
  br label %52

52:                                               ; preds = %51, %dhkem_decap.exit
  %.0 = phi i32 [ %.0.i, %dhkem_decap.exit ], [ -2, %51 ]
  ret i32 %.0
}